target datalayout = "e-m:e-p270:32:32-p271:32:32-p272:64:64-i64:64-i128:128-f80:128-n8:16:32:64-S128"
target triple = "x86_64-pc-linux-gnu"

%struct.ggml_gallocr = type { ptr, ptr, ptr, i32, %struct.ggml_hash_set, ptr, ptr, i32, ptr, i32 }
%struct.ggml_hash_set = type { i64, ptr, ptr }
%struct.ggml_dyn_tallocr = type { i64, i32, [256 x %struct.free_block], i64 }
%struct.free_block = type { i64, i64 }

@.str.1 = private unnamed_addr constant [119 x i8] c"generated/home/dtcxzyw/WorkSpace/Projects/compilers/llvm-opt-benchmark/bench/llama.cpp/llama.cpp/ggml/src/ggml-alloc.c\00", align 1
@.str.3 = private unnamed_addr constant [23 x i8] c"GGML_ASSERT(%s) failed\00", align 1
@.str.4 = private unnamed_addr constant [15 x i8] c"galloc != NULL\00", align 1
@.str.5 = private unnamed_addr constant [22 x i8] c"galloc->bufts != NULL\00", align 1
@.str.6 = private unnamed_addr constant [24 x i8] c"galloc->buffers != NULL\00", align 1
@.str.7 = private unnamed_addr constant [28 x i8] c"galloc->buf_tallocs != NULL\00", align 1

; Function Attrs: nounwind uwtable
define internal void @ggml_dyn_tallocr_reset(ptr noundef %0) #0 {
  %2 = alloca ptr, align 8
  store ptr %0, ptr %2, align 8, !tbaa !41
  %3 = load ptr, ptr %2, align 8, !tbaa !41
  %4 = getelementptr inbounds nuw %struct.ggml_dyn_tallocr, ptr %3, i32 0, i32 1
  store i32 1, ptr %4, align 8, !tbaa !101
  %5 = load ptr, ptr %2, align 8, !tbaa !41
  %6 = getelementptr inbounds nuw %struct.ggml_dyn_tallocr, ptr %5, i32 0, i32 2
  %7 = getelementptr inbounds [256 x %struct.free_block], ptr %6, i64 0, i64 0
  %8 = getelementptr inbounds nuw %struct.free_block, ptr %7, i32 0, i32 0
  store i64 0, ptr %8, align 8, !tbaa !102
  %9 = load ptr, ptr %2, align 8, !tbaa !41
  %10 = getelementptr inbounds nuw %struct.ggml_dyn_tallocr, ptr %9, i32 0, i32 2
  %11 = getelementptr inbounds [256 x %struct.free_block], ptr %10, i64 0, i64 0
  %12 = getelementptr inbounds nuw %struct.free_block, ptr %11, i32 0, i32 1
  store i64 9223372036854775807, ptr %12, align 8, !tbaa !104
  %13 = load ptr, ptr %2, align 8, !tbaa !41
  %14 = getelementptr inbounds nuw %struct.ggml_dyn_tallocr, ptr %13, i32 0, i32 3
  store i64 0, ptr %14, align 8, !tbaa !105
  ret void
}

; Function Attrs: nounwind uwtable
define internal ptr @ggml_dyn_tallocr_new(i64 noundef %0) #0 {
  %2 = alloca i64, align 8
  %3 = alloca ptr, align 8
  %4 = alloca %struct.ggml_dyn_tallocr, align 8
  store i64 %0, ptr %2, align 8, !tbaa !9
  call void @llvm.lifetime.start.p0(i64 8, ptr %3) #11
  %5 = call noalias ptr @malloc(i64 noundef 4120) #14
  store ptr %5, ptr %3, align 8, !tbaa !41
  %6 = load ptr, ptr %3, align 8, !tbaa !41
  call void @llvm.memset.p0.i64(ptr align 8 %4, i8 0, i64 4120, i1 false)
  %7 = getelementptr inbounds nuw %struct.ggml_dyn_tallocr, ptr %4, i32 0, i32 0
  %8 = load i64, ptr %2, align 8, !tbaa !9
  store i64 %8, ptr %7, align 8, !tbaa !47
  call void @llvm.memcpy.p0.p0.i64(ptr align 8 %6, ptr align 8 %4, i64 4120, i1 false), !tbaa.struct !49
  %9 = load ptr, ptr %3, align 8, !tbaa !41
  call void @ggml_dyn_tallocr_reset(ptr noundef %9)
  %10 = load ptr, ptr %3, align 8, !tbaa !41
  call void @llvm.lifetime.end.p0(i64 8, ptr %3) #11
  ret ptr %10
}

; Function Attrs: nounwind uwtable
define ptr @ggml_gallocr_new_n(ptr noundef %0, i32 noundef %1) #0 {
  %3 = alloca ptr, align 8
  %4 = alloca i32, align 4
  %5 = alloca ptr, align 8
  %6 = alloca i32, align 4
  %7 = alloca i32, align 4
  %8 = alloca i32, align 4
  %9 = alloca i64, align 8
  store ptr %0, ptr %3, align 8, !tbaa !20
  store i32 %1, ptr %4, align 4, !tbaa !23
  call void @llvm.lifetime.start.p0(i64 8, ptr %5) #11
  %10 = call noalias ptr @calloc(i64 noundef 1, i64 noundef 96) #13
  store ptr %10, ptr %5, align 8, !tbaa !25
  %11 = load ptr, ptr %5, align 8, !tbaa !25
  %12 = icmp ne ptr %11, null
  br i1 %12, label %14, label %13

13:                                               ; preds = %2
  call void (ptr, i32, ptr, ...) @ggml_abort(ptr noundef @.str.1, i32 noundef 382, ptr noundef @.str.3, ptr noundef @.str.4) #12
  unreachable

14:                                               ; preds = %2
  %15 = load i32, ptr %4, align 4, !tbaa !23
  %16 = sext i32 %15 to i64
  %17 = call noalias ptr @calloc(i64 noundef %16, i64 noundef 8) #13
  %18 = load ptr, ptr %5, align 8, !tbaa !25
  %19 = getelementptr inbounds nuw %struct.ggml_gallocr, ptr %18, i32 0, i32 0
  store ptr %17, ptr %19, align 8, !tbaa !27
  %20 = load ptr, ptr %5, align 8, !tbaa !25
  %21 = getelementptr inbounds nuw %struct.ggml_gallocr, ptr %20, i32 0, i32 0
  %22 = load ptr, ptr %21, align 8, !tbaa !27
  %23 = icmp ne ptr %22, null
  br i1 %23, label %25, label %24

24:                                               ; preds = %14
  call void (ptr, i32, ptr, ...) @ggml_abort(ptr noundef @.str.1, i32 noundef 385, ptr noundef @.str.3, ptr noundef @.str.5) #12
  unreachable

25:                                               ; preds = %14
  %26 = load i32, ptr %4, align 4, !tbaa !23
  %27 = sext i32 %26 to i64
  %28 = call noalias ptr @calloc(i64 noundef %27, i64 noundef 8) #13
  %29 = load ptr, ptr %5, align 8, !tbaa !25
  %30 = getelementptr inbounds nuw %struct.ggml_gallocr, ptr %29, i32 0, i32 1
  store ptr %28, ptr %30, align 8, !tbaa !37
  %31 = load ptr, ptr %5, align 8, !tbaa !25
  %32 = getelementptr inbounds nuw %struct.ggml_gallocr, ptr %31, i32 0, i32 1
  %33 = load ptr, ptr %32, align 8, !tbaa !37
  %34 = icmp ne ptr %33, null
  br i1 %34, label %36, label %35

35:                                               ; preds = %25
  call void (ptr, i32, ptr, ...) @ggml_abort(ptr noundef @.str.1, i32 noundef 388, ptr noundef @.str.3, ptr noundef @.str.6) #12
  unreachable

36:                                               ; preds = %25
  %37 = load i32, ptr %4, align 4, !tbaa !23
  %38 = sext i32 %37 to i64
  %39 = call noalias ptr @calloc(i64 noundef %38, i64 noundef 8) #13
  %40 = load ptr, ptr %5, align 8, !tbaa !25
  %41 = getelementptr inbounds nuw %struct.ggml_gallocr, ptr %40, i32 0, i32 2
  store ptr %39, ptr %41, align 8, !tbaa !38
  %42 = load ptr, ptr %5, align 8, !tbaa !25
  %43 = getelementptr inbounds nuw %struct.ggml_gallocr, ptr %42, i32 0, i32 2
  %44 = load ptr, ptr %43, align 8, !tbaa !38
  %45 = icmp ne ptr %44, null
  br i1 %45, label %47, label %46

46:                                               ; preds = %36
  call void (ptr, i32, ptr, ...) @ggml_abort(ptr noundef @.str.1, i32 noundef 391, ptr noundef @.str.3, ptr noundef @.str.7) #12
  unreachable

47:                                               ; preds = %36
  call void @llvm.lifetime.start.p0(i64 4, ptr %6) #11
  store i32 0, ptr %6, align 4, !tbaa !23
  br label %48

48:                                               ; preds = %132, %47
  %49 = load i32, ptr %6, align 4, !tbaa !23
  %50 = load i32, ptr %4, align 4, !tbaa !23
  %51 = icmp slt i32 %49, %50
  br i1 %51, label %53, label %52

52:                                               ; preds = %48
  store i32 2, ptr %7, align 4
  call void @llvm.lifetime.end.p0(i64 4, ptr %6) #11
  br label %135

53:                                               ; preds = %48
  %54 = load ptr, ptr %3, align 8, !tbaa !20
  %55 = load i32, ptr %6, align 4, !tbaa !23
  %56 = sext i32 %55 to i64
  %57 = getelementptr inbounds ptr, ptr %54, i64 %56
  %58 = load ptr, ptr %57, align 8, !tbaa !39
  %59 = load ptr, ptr %5, align 8, !tbaa !25
  %60 = getelementptr inbounds nuw %struct.ggml_gallocr, ptr %59, i32 0, i32 0
  %61 = load ptr, ptr %60, align 8, !tbaa !27
  %62 = load i32, ptr %6, align 4, !tbaa !23
  %63 = sext i32 %62 to i64
  %64 = getelementptr inbounds ptr, ptr %61, i64 %63
  store ptr %58, ptr %64, align 8, !tbaa !39
  %65 = load ptr, ptr %5, align 8, !tbaa !25
  %66 = getelementptr inbounds nuw %struct.ggml_gallocr, ptr %65, i32 0, i32 1
  %67 = load ptr, ptr %66, align 8, !tbaa !37
  %68 = load i32, ptr %6, align 4, !tbaa !23
  %69 = sext i32 %68 to i64
  %70 = getelementptr inbounds ptr, ptr %67, i64 %69
  store ptr null, ptr %70, align 8, !tbaa !3
  call void @llvm.lifetime.start.p0(i64 4, ptr %8) #11
  store i32 0, ptr %8, align 4, !tbaa !23
  br label %71

71:                                               ; preds = %103, %53
  %72 = load i32, ptr %8, align 4, !tbaa !23
  %73 = load i32, ptr %6, align 4, !tbaa !23
  %74 = icmp slt i32 %72, %73
  br i1 %74, label %76, label %75

75:                                               ; preds = %71
  store i32 5, ptr %7, align 4
  br label %106

76:                                               ; preds = %71
  %77 = load ptr, ptr %3, align 8, !tbaa !20
  %78 = load i32, ptr %6, align 4, !tbaa !23
  %79 = sext i32 %78 to i64
  %80 = getelementptr inbounds ptr, ptr %77, i64 %79
  %81 = load ptr, ptr %80, align 8, !tbaa !39
  %82 = load ptr, ptr %3, align 8, !tbaa !20
  %83 = load i32, ptr %8, align 4, !tbaa !23
  %84 = sext i32 %83 to i64
  %85 = getelementptr inbounds ptr, ptr %82, i64 %84
  %86 = load ptr, ptr %85, align 8, !tbaa !39
  %87 = icmp eq ptr %81, %86
  br i1 %87, label %88, label %102

88:                                               ; preds = %76
  %89 = load ptr, ptr %5, align 8, !tbaa !25
  %90 = getelementptr inbounds nuw %struct.ggml_gallocr, ptr %89, i32 0, i32 2
  %91 = load ptr, ptr %90, align 8, !tbaa !38
  %92 = load i32, ptr %8, align 4, !tbaa !23
  %93 = sext i32 %92 to i64
  %94 = getelementptr inbounds ptr, ptr %91, i64 %93
  %95 = load ptr, ptr %94, align 8, !tbaa !41
  %96 = load ptr, ptr %5, align 8, !tbaa !25
  %97 = getelementptr inbounds nuw %struct.ggml_gallocr, ptr %96, i32 0, i32 2
  %98 = load ptr, ptr %97, align 8, !tbaa !38
  %99 = load i32, ptr %6, align 4, !tbaa !23
  %100 = sext i32 %99 to i64
  %101 = getelementptr inbounds ptr, ptr %98, i64 %100
  store ptr %95, ptr %101, align 8, !tbaa !41
  store i32 5, ptr %7, align 4
  br label %106

102:                                              ; preds = %76
  br label %103

103:                                              ; preds = %102
  %104 = load i32, ptr %8, align 4, !tbaa !23
  %105 = add nsw i32 %104, 1
  store i32 %105, ptr %8, align 4, !tbaa !23
  br label %71, !llvm.loop !43

106:                                              ; preds = %88, %75
  call void @llvm.lifetime.end.p0(i64 4, ptr %8) #11
  br label %107

107:                                              ; preds = %106
  %108 = load ptr, ptr %5, align 8, !tbaa !25
  %109 = getelementptr inbounds nuw %struct.ggml_gallocr, ptr %108, i32 0, i32 2
  %110 = load ptr, ptr %109, align 8, !tbaa !38
  %111 = load i32, ptr %6, align 4, !tbaa !23
  %112 = sext i32 %111 to i64
  %113 = getelementptr inbounds ptr, ptr %110, i64 %112
  %114 = load ptr, ptr %113, align 8, !tbaa !41
  %115 = icmp eq ptr %114, null
  br i1 %115, label %116, label %131

116:                                              ; preds = %107
  call void @llvm.lifetime.start.p0(i64 8, ptr %9) #11
  %117 = load ptr, ptr %3, align 8, !tbaa !20
  %118 = load i32, ptr %6, align 4, !tbaa !23
  %119 = sext i32 %118 to i64
  %120 = getelementptr inbounds ptr, ptr %117, i64 %119
  %121 = load ptr, ptr %120, align 8, !tbaa !39
  %122 = call i64 @ggml_backend_buft_get_alignment(ptr noundef %121)
  store i64 %122, ptr %9, align 8, !tbaa !9
  %123 = load i64, ptr %9, align 8, !tbaa !9
  %124 = call ptr @ggml_dyn_tallocr_new(i64 noundef %123)
  %125 = load ptr, ptr %5, align 8, !tbaa !25
  %126 = getelementptr inbounds nuw %struct.ggml_gallocr, ptr %125, i32 0, i32 2
  %127 = load ptr, ptr %126, align 8, !tbaa !38
  %128 = load i32, ptr %6, align 4, !tbaa !23
  %129 = sext i32 %128 to i64
  %130 = getelementptr inbounds ptr, ptr %127, i64 %129
  store ptr %124, ptr %130, align 8, !tbaa !41
  call void @llvm.lifetime.end.p0(i64 8, ptr %9) #11
  br label %131

131:                                              ; preds = %116, %107
  br label %132

132:                                              ; preds = %131
  %133 = load i32, ptr %6, align 4, !tbaa !23
  %134 = add nsw i32 %133, 1
  store i32 %134, ptr %6, align 4, !tbaa !23
  br label %48, !llvm.loop !45

135:                                              ; preds = %52
  %136 = load i32, ptr %4, align 4, !tbaa !23
  %137 = load ptr, ptr %5, align 8, !tbaa !25
  %138 = getelementptr inbounds nuw %struct.ggml_gallocr, ptr %137, i32 0, i32 3
  store i32 %136, ptr %138, align 8, !tbaa !46
  %139 = load ptr, ptr %5, align 8, !tbaa !25
  store i32 1, ptr %7, align 4
  call void @llvm.lifetime.end.p0(i64 8, ptr %5) #11
  ret ptr %139
}