; Function Attrs: nounwind uwtable
define noalias nonnull ptr @ggml_gallocr_new_n(ptr noundef readonly captures(none) %0, i32 noundef %1) local_unnamed_addr #0 {
  %3 = tail call noalias dereferenceable_or_null(96) ptr @calloc(i64 noundef 1, i64 noundef 96) #14
  %.not = icmp eq ptr %3, null
  br i1 %.not, label %4, label %5

4:                                                ; preds = %2
  tail call void (ptr, i32, ptr, ...) @ggml_abort(ptr noundef nonnull @.str.1, i32 noundef 382, ptr noundef nonnull @.str.3, ptr noundef nonnull @.str.4) #13
  unreachable

5:                                                ; preds = %2
  %6 = sext i32 %1 to i64
  %7 = tail call noalias ptr @calloc(i64 noundef %6, i64 noundef 8) #14
  store ptr %7, ptr %3, align 8, !tbaa !13
  %.not42 = icmp eq ptr %7, null
  br i1 %.not42, label %8, label %9

8:                                                ; preds = %5
  tail call void (ptr, i32, ptr, ...) @ggml_abort(ptr noundef nonnull @.str.1, i32 noundef 385, ptr noundef nonnull @.str.3, ptr noundef nonnull @.str.5) #13
  unreachable

9:                                                ; preds = %5
  %10 = tail call noalias ptr @calloc(i64 noundef %6, i64 noundef 8) #14
  %11 = getelementptr inbounds nuw i8, ptr %3, i64 8
  store ptr %10, ptr %11, align 8, !tbaa !26
  %.not43 = icmp eq ptr %10, null
  br i1 %.not43, label %12, label %13

12:                                               ; preds = %9
  tail call void (ptr, i32, ptr, ...) @ggml_abort(ptr noundef nonnull @.str.1, i32 noundef 388, ptr noundef nonnull @.str.3, ptr noundef nonnull @.str.6) #13
  unreachable

13:                                               ; preds = %9
  %14 = tail call noalias ptr @calloc(i64 noundef %6, i64 noundef 8) #14
  %15 = getelementptr inbounds nuw i8, ptr %3, i64 16
  store ptr %14, ptr %15, align 8, !tbaa !27
  %.not44 = icmp eq ptr %14, null
  br i1 %.not44, label %17, label %.preheader

.preheader:                                       ; preds = %13
  %16 = icmp sgt i32 %1, 0
  br i1 %16, label %.lr.ph48.preheader, label %._crit_edge

.lr.ph48.preheader:                               ; preds = %.preheader
  %wide.trip.count55 = zext nneg i32 %1 to i64
  br label %.lr.ph48

17:                                               ; preds = %13
  tail call void (ptr, i32, ptr, ...) @ggml_abort(ptr noundef nonnull @.str.1, i32 noundef 391, ptr noundef nonnull @.str.3, ptr noundef nonnull @.str.7) #13
  unreachable

._crit_edge:                                      ; preds = %39, %.preheader
  %18 = getelementptr inbounds nuw i8, ptr %3, i64 24
  store i32 %1, ptr %18, align 8, !tbaa !28
  ret ptr %3

.lr.ph48:                                         ; preds = %.lr.ph48.preheader, %39
  %indvars.iv52 = phi i64 [ 0, %.lr.ph48.preheader ], [ %indvars.iv.next53, %39 ]
  %19 = getelementptr inbounds nuw ptr, ptr %0, i64 %indvars.iv52
  %20 = load ptr, ptr %19, align 8, !tbaa !29
  %21 = getelementptr inbounds nuw ptr, ptr %7, i64 %indvars.iv52
  store ptr %20, ptr %21, align 8, !tbaa !29
  %22 = getelementptr inbounds nuw ptr, ptr %10, i64 %indvars.iv52
  store ptr null, ptr %22, align 8, !tbaa !31
  %.not49 = icmp eq i64 %indvars.iv52, 0
  br i1 %.not49, label %.loopexit, label %.lr.ph

23:                                               ; preds = %.lr.ph
  %indvars.iv.next = add nuw nsw i64 %indvars.iv, 1
  %exitcond.not = icmp eq i64 %indvars.iv.next, %indvars.iv52
  br i1 %exitcond.not, label %.loopexit, label %.lr.ph, !llvm.loop !32

.lr.ph:                                           ; preds = %.lr.ph48, %23
  %indvars.iv = phi i64 [ %indvars.iv.next, %23 ], [ 0, %.lr.ph48 ]
  %24 = getelementptr inbounds nuw ptr, ptr %0, i64 %indvars.iv
  %25 = load ptr, ptr %24, align 8, !tbaa !29
  %26 = icmp eq ptr %20, %25
  br i1 %26, label %27, label %23

27:                                               ; preds = %.lr.ph
  %28 = getelementptr inbounds nuw ptr, ptr %14, i64 %indvars.iv
  %29 = load ptr, ptr %28, align 8, !tbaa !34
  %30 = getelementptr inbounds nuw ptr, ptr %14, i64 %indvars.iv52
  store ptr %29, ptr %30, align 8, !tbaa !34
  br label %.loopexit

.loopexit:                                        ; preds = %23, %.lr.ph48, %27
  %31 = getelementptr inbounds nuw ptr, ptr %14, i64 %indvars.iv52
  %32 = load ptr, ptr %31, align 8, !tbaa !34
  %33 = icmp eq ptr %32, null
  br i1 %33, label %34, label %39

34:                                               ; preds = %.loopexit
  %35 = tail call i64 @ggml_backend_buft_get_alignment(ptr noundef %20) #12
  %36 = tail call noalias dereferenceable_or_null(4120) ptr @malloc(i64 noundef 4120) #15
  store i64 %35, ptr %36, align 8, !tbaa !36
  %.sroa.3.0..sroa_idx.i = getelementptr inbounds nuw i8, ptr %36, i64 8
  tail call void @llvm.memset.p0.i64(ptr noundef nonnull align 8 dereferenceable(4104) %.sroa.3.0..sroa_idx.i, i8 0, i64 4104, i1 false)
  store i32 1, ptr %.sroa.3.0..sroa_idx.i, align 8, !tbaa !37
  %37 = getelementptr inbounds nuw i8, ptr %36, i64 24
  store i64 9223372036854775807, ptr %37, align 8, !tbaa !39
  %38 = getelementptr inbounds nuw i8, ptr %36, i64 4112
  store i64 0, ptr %38, align 8, !tbaa !41
  store ptr %36, ptr %31, align 8, !tbaa !34
  br label %39

39:                                               ; preds = %.loopexit, %34
  %indvars.iv.next53 = add nuw nsw i64 %indvars.iv52, 1
  %exitcond56.not = icmp eq i64 %indvars.iv.next53, %wide.trip.count55
  br i1 %exitcond56.not, label %._crit_edge, label %.lr.ph48, !llvm.loop !42
}